; Function Attrs: mustprogress uwtable
define void @_ZNK31MLRenderingSolidParametersFrame37getCurrentRenderingDataAccordingToGUIER15MLRenderingData(ptr nocapture noundef nonnull readonly align 8 dereferenceable(120) %0, ptr noundef nonnull align 8 dereferenceable(40) %1) unnamed_addr #3 align 2 {
  %3 = getelementptr inbounds i8, ptr %0, i64 64
  %4 = load ptr, ptr %3, align 8
  %5 = getelementptr inbounds i8, ptr %4, i64 48
  %6 = load ptr, ptr %5, align 8
  %7 = getelementptr inbounds i8, ptr %6, i64 12
  %8 = load i32, ptr %7, align 4
  %9 = getelementptr inbounds i8, ptr %6, i64 8
  %10 = load i32, ptr %9, align 8
  %11 = icmp sgt i32 %8, %10
  br i1 %11, label %.lr.ph.i, label %_ZNK18MLRenderingToolbar37getCurrentRenderingDataAccordingToGUIER15MLRenderingData.exit

.lr.ph.i:                                         ; preds = %2, %23
  %12 = phi ptr [ %24, %23 ], [ %6, %2 ]
  %indvars.iv.i = phi i64 [ %indvars.iv.next.i, %23 ], [ 0, %2 ]
  %13 = phi i32 [ %28, %23 ], [ %10, %2 ]
  %14 = getelementptr inbounds i8, ptr %12, i64 16
  %15 = sext i32 %13 to i64
  %16 = getelementptr inbounds ptr, ptr %14, i64 %15
  %17 = getelementptr inbounds ptr, ptr %16, i64 %indvars.iv.i
  %18 = load ptr, ptr %17, align 8
  %.not.i = icmp eq ptr %18, null
  br i1 %.not.i, label %23, label %19

19:                                               ; preds = %.lr.ph.i
  %20 = load ptr, ptr %18, align 8
  %21 = getelementptr inbounds i8, ptr %20, i64 104
  %22 = load ptr, ptr %21, align 8
  tail call void %22(ptr noundef nonnull align 8 dereferenceable(16) %18, ptr noundef nonnull align 8 dereferenceable(40) %1)
  %.pre.i = load ptr, ptr %5, align 8
  br label %23

23:                                               ; preds = %19, %.lr.ph.i
  %24 = phi ptr [ %12, %.lr.ph.i ], [ %.pre.i, %19 ]
  %indvars.iv.next.i = add nuw nsw i64 %indvars.iv.i, 1
  %25 = getelementptr inbounds i8, ptr %24, i64 12
  %26 = load i32, ptr %25, align 4
  %27 = getelementptr inbounds i8, ptr %24, i64 8
  %28 = load i32, ptr %27, align 8
  %29 = sub nsw i32 %26, %28
  %30 = sext i32 %29 to i64
  %31 = icmp slt i64 %indvars.iv.next.i, %30
  br i1 %31, label %.lr.ph.i, label %_ZNK18MLRenderingToolbar37getCurrentRenderingDataAccordingToGUIER15MLRenderingData.exit, !llvm.loop !45

_ZNK18MLRenderingToolbar37getCurrentRenderingDataAccordingToGUIER15MLRenderingData.exit: ; preds = %23, %2
  %32 = getelementptr inbounds i8, ptr %0, i64 80
  %33 = load ptr, ptr %32, align 8
  %34 = getelementptr inbounds i8, ptr %33, i64 48
  %35 = load ptr, ptr %34, align 8
  %36 = getelementptr inbounds i8, ptr %35, i64 12
  %37 = load i32, ptr %36, align 4
  %38 = getelementptr inbounds i8, ptr %35, i64 8
  %39 = load i32, ptr %38, align 8
  %40 = icmp sgt i32 %37, %39
  br i1 %40, label %.lr.ph.i5, label %_ZNK18MLRenderingToolbar37getCurrentRenderingDataAccordingToGUIER15MLRenderingData.exit10

.lr.ph.i5:                                        ; preds = %_ZNK18MLRenderingToolbar37getCurrentRenderingDataAccordingToGUIER15MLRenderingData.exit, %52
  %41 = phi ptr [ %53, %52 ], [ %35, %_ZNK18MLRenderingToolbar37getCurrentRenderingDataAccordingToGUIER15MLRenderingData.exit ]
  %indvars.iv.i6 = phi i64 [ %indvars.iv.next.i9, %52 ], [ 0, %_ZNK18MLRenderingToolbar37getCurrentRenderingDataAccordingToGUIER15MLRenderingData.exit ]
  %42 = phi i32 [ %57, %52 ], [ %39, %_ZNK18MLRenderingToolbar37getCurrentRenderingDataAccordingToGUIER15MLRenderingData.exit ]
  %43 = getelementptr inbounds i8, ptr %41, i64 16
  %44 = sext i32 %42 to i64
  %45 = getelementptr inbounds ptr, ptr %43, i64 %44
  %46 = getelementptr inbounds ptr, ptr %45, i64 %indvars.iv.i6
  %47 = load ptr, ptr %46, align 8
  %.not.i7 = icmp eq ptr %47, null
  br i1 %.not.i7, label %52, label %48

48:                                               ; preds = %.lr.ph.i5
  %49 = load ptr, ptr %47, align 8
  %50 = getelementptr inbounds i8, ptr %49, i64 104
  %51 = load ptr, ptr %50, align 8
  tail call void %51(ptr noundef nonnull align 8 dereferenceable(16) %47, ptr noundef nonnull align 8 dereferenceable(40) %1)
  %.pre.i8 = load ptr, ptr %34, align 8
  br label %52

52:                                               ; preds = %48, %.lr.ph.i5
  %53 = phi ptr [ %41, %.lr.ph.i5 ], [ %.pre.i8, %48 ]
  %indvars.iv.next.i9 = add nuw nsw i64 %indvars.iv.i6, 1
  %54 = getelementptr inbounds i8, ptr %53, i64 12
  %55 = load i32, ptr %54, align 4
  %56 = getelementptr inbounds i8, ptr %53, i64 8
  %57 = load i32, ptr %56, align 8
  %58 = sub nsw i32 %55, %57
  %59 = sext i32 %58 to i64
  %60 = icmp slt i64 %indvars.iv.next.i9, %59
  br i1 %60, label %.lr.ph.i5, label %_ZNK18MLRenderingToolbar37getCurrentRenderingDataAccordingToGUIER15MLRenderingData.exit10, !llvm.loop !45

_ZNK18MLRenderingToolbar37getCurrentRenderingDataAccordingToGUIER15MLRenderingData.exit10: ; preds = %52, %_ZNK18MLRenderingToolbar37getCurrentRenderingDataAccordingToGUIER15MLRenderingData.exit
  %61 = getelementptr inbounds i8, ptr %0, i64 96
  %62 = load ptr, ptr %61, align 8
  %63 = getelementptr inbounds i8, ptr %62, i64 48
  %64 = load ptr, ptr %63, align 8
  %65 = getelementptr inbounds i8, ptr %64, i64 12
  %66 = load i32, ptr %65, align 4
  %67 = getelementptr inbounds i8, ptr %64, i64 8
  %68 = load i32, ptr %67, align 8
  %69 = icmp sgt i32 %66, %68
  br i1 %69, label %.lr.ph.i11, label %_ZNK18MLRenderingToolbar37getCurrentRenderingDataAccordingToGUIER15MLRenderingData.exit16

.lr.ph.i11:                                       ; preds = %_ZNK18MLRenderingToolbar37getCurrentRenderingDataAccordingToGUIER15MLRenderingData.exit10, %81
  %70 = phi ptr [ %82, %81 ], [ %64, %_ZNK18MLRenderingToolbar37getCurrentRenderingDataAccordingToGUIER15MLRenderingData.exit10 ]
  %indvars.iv.i12 = phi i64 [ %indvars.iv.next.i15, %81 ], [ 0, %_ZNK18MLRenderingToolbar37getCurrentRenderingDataAccordingToGUIER15MLRenderingData.exit10 ]
  %71 = phi i32 [ %86, %81 ], [ %68, %_ZNK18MLRenderingToolbar37getCurrentRenderingDataAccordingToGUIER15MLRenderingData.exit10 ]
  %72 = getelementptr inbounds i8, ptr %70, i64 16
  %73 = sext i32 %71 to i64
  %74 = getelementptr inbounds ptr, ptr %72, i64 %73
  %75 = getelementptr inbounds ptr, ptr %74, i64 %indvars.iv.i12
  %76 = load ptr, ptr %75, align 8
  %.not.i13 = icmp eq ptr %76, null
  br i1 %.not.i13, label %81, label %77

77:                                               ; preds = %.lr.ph.i11
  %78 = load ptr, ptr %76, align 8
  %79 = getelementptr inbounds i8, ptr %78, i64 104
  %80 = load ptr, ptr %79, align 8
  tail call void %80(ptr noundef nonnull align 8 dereferenceable(16) %76, ptr noundef nonnull align 8 dereferenceable(40) %1)
  %.pre.i14 = load ptr, ptr %63, align 8
  br label %81

81:                                               ; preds = %77, %.lr.ph.i11
  %82 = phi ptr [ %70, %.lr.ph.i11 ], [ %.pre.i14, %77 ]
  %indvars.iv.next.i15 = add nuw nsw i64 %indvars.iv.i12, 1
  %83 = getelementptr inbounds i8, ptr %82, i64 12
  %84 = load i32, ptr %83, align 4
  %85 = getelementptr inbounds i8, ptr %82, i64 8
  %86 = load i32, ptr %85, align 8
  %87 = sub nsw i32 %84, %86
  %88 = sext i32 %87 to i64
  %89 = icmp slt i64 %indvars.iv.next.i15, %88
  br i1 %89, label %.lr.ph.i11, label %_ZNK18MLRenderingToolbar37getCurrentRenderingDataAccordingToGUIER15MLRenderingData.exit16, !llvm.loop !45

_ZNK18MLRenderingToolbar37getCurrentRenderingDataAccordingToGUIER15MLRenderingData.exit16: ; preds = %81, %_ZNK18MLRenderingToolbar37getCurrentRenderingDataAccordingToGUIER15MLRenderingData.exit10
  %90 = getelementptr inbounds i8, ptr %0, i64 112
  %91 = load ptr, ptr %90, align 8
  %92 = getelementptr inbounds i8, ptr %91, i64 56
  %93 = load ptr, ptr %92, align 8
  %.not.i17 = icmp eq ptr %93, null
  br i1 %.not.i17, label %_ZNK23MLRenderingOnOffToolbar30getRenderingDataAccordingToGUIER15MLRenderingData.exit, label %94

94:                                               ; preds = %_ZNK18MLRenderingToolbar37getCurrentRenderingDataAccordingToGUIER15MLRenderingData.exit16
  %95 = load ptr, ptr %93, align 8
  %96 = getelementptr inbounds i8, ptr %95, i64 104
  %97 = load ptr, ptr %96, align 8
  tail call void %97(ptr noundef nonnull align 8 dereferenceable(16) %93, ptr noundef nonnull align 8 dereferenceable(40) %1)
  br label %_ZNK23MLRenderingOnOffToolbar30getRenderingDataAccordingToGUIER15MLRenderingData.exit

_ZNK23MLRenderingOnOffToolbar30getRenderingDataAccordingToGUIER15MLRenderingData.exit: ; preds = %_ZNK18MLRenderingToolbar37getCurrentRenderingDataAccordingToGUIER15MLRenderingData.exit16, %94
  ret void
}